target datalayout = "e-m:e-p270:32:32-p271:32:32-p272:64:64-i64:64-i128:128-f80:128-n8:16:32:64-S128"
target triple = "x86_64-pc-linux-gnu"

%"class.duckdb::AggregateFunction" = type { %"class.duckdb::BaseScalarFunction.base", ptr, ptr, ptr, ptr, ptr, ptr, ptr, ptr, ptr, ptr, ptr, ptr, ptr, i8, i8, %"class.duckdb::shared_ptr.3" }
%"class.duckdb::BaseScalarFunction.base" = type <{ %"class.duckdb::SimpleFunction", %"struct.duckdb::LogicalType", i8, i8, i8, i8 }>
%"class.duckdb::SimpleFunction" = type { %"class.duckdb::Function", %"class.duckdb::vector", %"class.duckdb::vector", %"struct.duckdb::LogicalType" }
%"class.duckdb::Function" = type { ptr, %"class.std::__cxx11::basic_string", %"class.std::__cxx11::basic_string" }
%"class.std::__cxx11::basic_string" = type { %"struct.std::__cxx11::basic_string<char>::_Alloc_hider", i64, %union.anon }
%"struct.std::__cxx11::basic_string<char>::_Alloc_hider" = type { ptr }
%union.anon = type { i64, [8 x i8] }
%"class.duckdb::vector" = type { %"class.std::vector" }
%"class.std::vector" = type { %"struct.std::_Vector_base" }
%"struct.std::_Vector_base" = type { %"struct.std::_Vector_base<duckdb::LogicalType, std::allocator<duckdb::LogicalType>>::_Vector_impl" }
%"struct.std::_Vector_base<duckdb::LogicalType, std::allocator<duckdb::LogicalType>>::_Vector_impl" = type { %"struct.std::_Vector_base<duckdb::LogicalType, std::allocator<duckdb::LogicalType>>::_Vector_impl_data" }
%"struct.std::_Vector_base<duckdb::LogicalType, std::allocator<duckdb::LogicalType>>::_Vector_impl_data" = type { ptr, ptr, ptr }
%"struct.duckdb::LogicalType" = type { i8, i8, %"class.duckdb::shared_ptr" }
%"class.duckdb::shared_ptr" = type { %"class.std::shared_ptr" }
%"class.std::shared_ptr" = type { %"class.std::__shared_ptr" }
%"class.std::__shared_ptr" = type { ptr, %"class.std::__shared_count" }
%"class.std::__shared_count" = type { ptr }
%"class.duckdb::shared_ptr.3" = type { %"class.std::shared_ptr.4" }
%"class.std::shared_ptr.4" = type { %"class.std::__shared_ptr.5" }
%"class.std::__shared_ptr.5" = type { ptr, %"class.std::__shared_count" }

; Function Attrs: mustprogress uwtable
define void @_ZN6duckdb25StandardErrorOfTheMeanFun11GetFunctionEv(ptr dead_on_unwind noalias writable sret(%"class.duckdb::AggregateFunction") align 8 %0) #0 align 2 personality ptr @__gxx_personality_v0 {
  %2 = alloca ptr, align 8
  %3 = alloca %"struct.duckdb::LogicalType", align 8
  %4 = alloca %"struct.duckdb::LogicalType", align 8
  %5 = alloca ptr, align 8
  %6 = alloca i32, align 4
  store ptr %0, ptr %2, align 8
  call void @llvm.lifetime.start.p0(i64 24, ptr %3) #18
  call void @_ZN6duckdb11LogicalTypeC1ENS_13LogicalTypeIdE(ptr noundef nonnull align 8 dereferenceable(24) %3, i8 noundef zeroext 23)
  invoke void @_ZN6duckdb11LogicalTypeC1ENS_13LogicalTypeIdE(ptr noundef nonnull align 8 dereferenceable(24) %4, i8 noundef zeroext 23)
          to label %7 unwind label %9

7:                                                ; preds = %1
  invoke void @_ZN6duckdb17AggregateFunction14UnaryAggregateINS_11StddevStateEddNS_31StandardErrorOfTheMeanOperationELNS_23AggregateDestructorTypeE0EEES0_RKNS_11LogicalTypeES5_NS_20FunctionNullHandlingE(ptr dead_on_unwind writable sret(%"class.duckdb::AggregateFunction") align 8 %0, ptr noundef nonnull align 8 dereferenceable(24) %3, ptr noundef %4, i8 noundef zeroext 0)
          to label %8 unwind label %13

8:                                                ; preds = %7
  call void @_ZN6duckdb11LogicalTypeD1Ev(ptr noundef nonnull align 8 dereferenceable(24) %4) #18
  call void @_ZN6duckdb11LogicalTypeD1Ev(ptr noundef nonnull align 8 dereferenceable(24) %3) #18
  call void @llvm.lifetime.end.p0(i64 24, ptr %3) #18
  ret void

9:                                                ; preds = %1
  %10 = landingpad { ptr, i32 }
          cleanup
  %11 = extractvalue { ptr, i32 } %10, 0
  store ptr %11, ptr %5, align 8
  %12 = extractvalue { ptr, i32 } %10, 1
  store i32 %12, ptr %6, align 4
  br label %17

13:                                               ; preds = %7
  %14 = landingpad { ptr, i32 }
          cleanup
  %15 = extractvalue { ptr, i32 } %14, 0
  store ptr %15, ptr %5, align 8
  %16 = extractvalue { ptr, i32 } %14, 1
  store i32 %16, ptr %6, align 4
  call void @_ZN6duckdb11LogicalTypeD1Ev(ptr noundef nonnull align 8 dereferenceable(24) %4) #18
  br label %17

17:                                               ; preds = %13, %9
  call void @_ZN6duckdb11LogicalTypeD1Ev(ptr noundef nonnull align 8 dereferenceable(24) %3) #18
  call void @llvm.lifetime.end.p0(i64 24, ptr %3) #18
  br label %18

18:                                               ; preds = %17
  %19 = load ptr, ptr %5, align 8
  %20 = load i32, ptr %6, align 4
  %21 = insertvalue { ptr, i32 } poison, ptr %19, 0
  %22 = insertvalue { ptr, i32 } %21, i32 %20, 1
  resume { ptr, i32 } %22
}